target datalayout = "e-m:e-p270:32:32-p271:32:32-p272:64:64-i64:64-i128:128-f80:128-n8:16:32:64-S128"
target triple = "x86_64-pc-linux-gnu"

%struct.in_addr = type { i32 }

@.str = private unnamed_addr constant [25 x i8] c"%d.%d.%d.%d.in-addr.arpa\00", align 1

; Function Attrs: inlinehint nounwind uwtable
define internal i32 @__bswap_32(i32 noundef %0) #5 {
  %2 = alloca i32, align 4
  store i32 %0, ptr %2, align 4
  %3 = load i32, ptr %2, align 4
  %4 = and i32 %3, -16777216
  %5 = lshr i32 %4, 24
  %6 = load i32, ptr %2, align 4
  %7 = and i32 %6, 16711680
  %8 = lshr i32 %7, 8
  %9 = or i32 %5, %8
  %10 = load i32, ptr %2, align 4
  %11 = and i32 %10, 65280
  %12 = shl i32 %11, 8
  %13 = or i32 %9, %12
  %14 = load i32, ptr %2, align 4
  %15 = and i32 %14, 255
  %16 = shl i32 %15, 24
  %17 = or i32 %13, %16
  ret i32 %17
}

; Function Attrs: nounwind uwtable
define i32 @evdns_server_request_add_ptr_reply(ptr noundef %0, ptr noundef %1, ptr noundef %2, ptr noundef %3, i32 noundef %4) #0 {
  %6 = alloca i32, align 4
  %7 = alloca ptr, align 8
  %8 = alloca ptr, align 8
  %9 = alloca ptr, align 8
  %10 = alloca ptr, align 8
  %11 = alloca i32, align 4
  %12 = alloca i32, align 4
  %13 = alloca [32 x i8], align 16
  %14 = alloca i32, align 4
  store ptr %0, ptr %7, align 8
  store ptr %1, ptr %8, align 8
  store ptr %2, ptr %9, align 8
  store ptr %3, ptr %10, align 8
  store i32 %4, ptr %11, align 4
  call void @llvm.lifetime.start.p0(i64 4, ptr %12) #10
  call void @llvm.lifetime.start.p0(i64 32, ptr %13) #10
  %15 = load ptr, ptr %8, align 8
  %16 = icmp ne ptr %15, null
  br i1 %16, label %17, label %21

17:                                               ; preds = %5
  %18 = load ptr, ptr %9, align 8
  %19 = icmp ne ptr %18, null
  br i1 %19, label %20, label %21

20:                                               ; preds = %17
  store i32 -1, ptr %6, align 4
  store i32 1, ptr %14, align 4
  br label %65

21:                                               ; preds = %17, %5
  %22 = load ptr, ptr %8, align 8
  %23 = icmp ne ptr %22, null
  br i1 %23, label %28, label %24

24:                                               ; preds = %21
  %25 = load ptr, ptr %9, align 8
  %26 = icmp ne ptr %25, null
  br i1 %26, label %28, label %27

27:                                               ; preds = %24
  store i32 -1, ptr %6, align 4
  store i32 1, ptr %14, align 4
  br label %65

28:                                               ; preds = %24, %21
  br label %29

29:                                               ; preds = %28
  %30 = load ptr, ptr %8, align 8
  %31 = icmp ne ptr %30, null
  br i1 %31, label %32, label %59

32:                                               ; preds = %29
  %33 = load ptr, ptr %8, align 8
  %34 = getelementptr inbounds nuw %struct.in_addr, ptr %33, i32 0, i32 0
  %35 = load i32, ptr %34, align 4
  %36 = call i32 @__bswap_32(i32 noundef %35)
  store i32 %36, ptr %12, align 4
  %37 = getelementptr inbounds [32 x i8], ptr %13, i64 0, i64 0
  %38 = load i32, ptr %12, align 4
  %39 = and i32 %38, 255
  %40 = trunc i32 %39 to i8
  %41 = zext i8 %40 to i32
  %42 = load i32, ptr %12, align 4
  %43 = lshr i32 %42, 8
  %44 = and i32 %43, 255
  %45 = trunc i32 %44 to i8
  %46 = zext i8 %45 to i32
  %47 = load i32, ptr %12, align 4
  %48 = lshr i32 %47, 16
  %49 = and i32 %48, 255
  %50 = trunc i32 %49 to i8
  %51 = zext i8 %50 to i32
  %52 = load i32, ptr %12, align 4
  %53 = lshr i32 %52, 24
  %54 = and i32 %53, 255
  %55 = trunc i32 %54 to i8
  %56 = zext i8 %55 to i32
  %57 = call i32 (ptr, i64, ptr, ...) @evutil_snprintf(ptr noundef %37, i64 noundef 32, ptr noundef @.str, i32 noundef %41, i32 noundef %46, i32 noundef %51, i32 noundef %56)
  %58 = getelementptr inbounds [32 x i8], ptr %13, i64 0, i64 0
  store ptr %58, ptr %9, align 8
  br label %59

59:                                               ; preds = %32, %29
  %60 = load ptr, ptr %7, align 8
  %61 = load ptr, ptr %9, align 8
  %62 = load i32, ptr %11, align 4
  %63 = load ptr, ptr %10, align 8
  %64 = call i32 @evdns_server_request_add_reply(ptr noundef %60, i32 noundef 0, ptr noundef %61, i32 noundef 12, i32 noundef 1, i32 noundef %62, i32 noundef -1, i32 noundef 1, ptr noundef %63)
  store i32 %64, ptr %6, align 4
  store i32 1, ptr %14, align 4
  br label %65

65:                                               ; preds = %59, %27, %20
  call void @llvm.lifetime.end.p0(i64 32, ptr %13) #10
  call void @llvm.lifetime.end.p0(i64 4, ptr %12) #10
  %66 = load i32, ptr %6, align 4
  ret i32 %66
}