; Function Attrs: nounwind uwtable
define range(i32 -1, 1) i32 @evdns_server_request_add_ptr_reply(ptr noundef captures(none) %0, ptr noundef readonly captures(address_is_null) %1, ptr noundef %2, ptr noundef %3, i32 noundef %4) local_unnamed_addr #2 {
  %6 = alloca [32 x i8], align 16
  call void @llvm.lifetime.start.p0(i64 32, ptr nonnull %6) #21
  %7 = icmp ne ptr %1, null
  %8 = icmp ne ptr %2, null
  %or.cond19 = xor i1 %7, %8
  br i1 %or.cond19, label %9, label %22

9:                                                ; preds = %5
  br i1 %7, label %10, label %20

10:                                               ; preds = %9
  %11 = load i32, ptr %1, align 4
  %12 = tail call noundef i32 @llvm.bswap.i32(i32 %11)
  %13 = and i32 %12, 255
  %14 = lshr i32 %12, 8
  %15 = and i32 %14, 255
  %16 = lshr i32 %12, 16
  %17 = and i32 %16, 255
  %18 = lshr i32 %12, 24
  %19 = call i32 (ptr, i64, ptr, ...) @evutil_snprintf(ptr noundef nonnull %6, i64 noundef 32, ptr noundef nonnull @.str, i32 noundef %13, i32 noundef %15, i32 noundef %17, i32 noundef %18) #21
  br label %20

20:                                               ; preds = %10, %9
  %.017 = phi ptr [ %6, %10 ], [ %2, %9 ]
  %21 = call i32 @evdns_server_request_add_reply(ptr noundef %0, i32 noundef 0, ptr noundef %.017, i32 noundef 12, i32 noundef 1, i32 noundef %4, i32 noundef -1, i32 noundef 1, ptr noundef %3)
  br label %22

22:                                               ; preds = %5, %20
  %.0 = phi i32 [ %21, %20 ], [ -1, %5 ]
  call void @llvm.lifetime.end.p0(i64 32, ptr nonnull %6) #21
  ret i32 %.0
}